ccopy_reg
_reconstructor
p1
(ctreelib.individual
Individual
p2
c__builtin__
object
p3
NtRp4
(dp5
S'height'
p6
I6
sS'_shortest_path'
p7
(dp8
I0
(lp9
I0
asI1
(lp10
I0
aI1
asI2
(lp11
I0
aI2
asI5
(lp12
I0
aI2
aI5
asI6
(lp13
I0
aI2
aI6
asI11
(lp14
I0
aI2
aI5
aI11
asI12
(lp15
I0
aI2
aI5
aI12
asI47
(lp16
I0
aI2
aI5
aI11
aI23
aI47
asI48
(lp17
I0
aI2
aI5
aI11
aI23
aI48
asI23
(lp18
I0
aI2
aI5
aI11
aI23
asI24
(lp19
I0
aI2
aI5
aI11
aI24
assS'ind_id'
p20
cnumpy.core.multiarray
scalar
p21
(cnumpy
dtype
p22
(S'i8'
I0
I1
tRp23
(I3
S'<'
NNNI-1
I-1
I0
tbS'\x00\x00\x00\x00\x00\x00\x00\x00'
tRp24
sS'tree'
p25
g1
(cnetworkx.classes.digraph
DiGraph
p26
g3
NtRp27
(dp28
S'node'
p29
(dp30
I0
(dp31
S'terminal'
p32
I00
sS'threshold'
p33
g21
(g22
(S'f8'
I0
I1
tRp34
(I3
S'<'
NNNI-1
I-1
I0
tbS'\x9ey\xe6\x99g\x9e\xd9?'
tRp35
sS'node_id'
p36
I0
sS'level'
p37
I0
sS'color'
p38
S'#FFFFFF'
p39
sS'label'
p40
Vpetalwidth
p41
ssI1
(dp42
g37
I1
sg38
S'#98FB98'
p43
sg40
VIris-setosa
p44
sg32
I01
sg36
I1
sg33
NssI2
(dp45
g32
I00
sg33
g21
(g34
S'5\xa3Y3\x9a5\x0b@'
tRp46
sg36
I2
sg37
I1
sg38
S'#0099ff'
p47
sg40
Vsepalwidth
p48
ssI5
(dp49
g32
I00
sg33
g21
(g34
S'\x02\x06\x18`\x80\x01\x14@'
tRp50
sg36
I5
sg37
I2
sg38
g47
sg40
Vpetallength
p51
ssI6
(dp52
g37
I2
sg38
g43
sg40
VIris-virginica
p53
sg32
I01
sg36
I6
sg33
NssI11
(dp54
g32
I00
sg33
g21
(g34
S'\x00\x00\x00\x00\x00\x00\x08@'
tRp55
sg36
I11
sg37
I3
sg38
g47
sg40
g48
ssI12
(dp56
g37
I3
sg38
g43
sg40
VIris-virginica
p57
sg32
I01
sg36
I12
sg33
NssI47
(dp58
g37
I5
sg38
g43
sg40
VIris-virginica
p59
sg32
I01
sg36
I47
sg33
NssI48
(dp60
g37
I5
sg38
g43
sg40
VIris-versicolor
p61
sg32
I01
sg36
I48
sg33
NssI23
(dp62
g32
I00
sg33
g21
(g34
S'\x9a\x99\x99\x99\x99\x99\x13@'
tRp63
sg36
I23
sg37
I4
sg38
g47
sg40
Vsepallength
p64
ssI24
(dp65
g37
I4
sg38
g43
sg40
VIris-versicolor
p66
sg32
I01
sg36
I24
sg33
NsssS'node_dict_factory'
p67
c__builtin__
dict
p68
sS'edge_attr_dict_factory'
p69
g68
sS'succ'
p70
(dp71
I0
(dp72
I1
(dp73
g33
S'<= 0.40'
p74
ssI2
(dp75
g33
S'> 0.40'
p76
sssI1
(dp77
sI2
(dp78
I5
(dp79
g33
S'<= 3.40'
p80
ssI6
(dp81
g33
S'> 3.40'
p82
sssI5
(dp83
I11
(dp84
g33
S'<= 5.00'
p85
ssI12
(dp86
g33
S'> 5.00'
p87
sssI6
(dp88
sI11
(dp89
I24
(dp90
g33
S'> 3.00'
p91
ssI23
(dp92
g33
S'<= 3.00'
p93
sssI12
(dp94
sI47
(dp95
sI48
(dp96
sI23
(dp97
I48
(dp98
g33
S'> 4.90'
p99
ssI47
(dp100
g33
S'<= 4.90'
p101
sssI24
(dp102
ssS'edge'
p103
g71
sS'graph'
p104
(dp105
sS'adjlist_dict_factory'
p106
g68
sS'adj'
p107
g71
sS'pred'
p108
(dp109
I0
(dp110
sI1
(dp111
I0
g73
ssI2
(dp112
I0
g75
ssI5
(dp113
I2
g79
ssI6
(dp114
I2
g81
ssI11
(dp115
I5
g84
ssI12
(dp116
I5
g86
ssI47
(dp117
I23
g100
ssI48
(dp118
I23
g98
ssI23
(dp119
I11
g92
ssI24
(dp120
I11
g90
sssbsS'fitness'
p121
g21
(g34
S'\xde\xdd\xdd\xdd\xdd\xdd\xed?'
tRp122
sb.